target datalayout = "e-m:e-p270:32:32-p271:32:32-p272:64:64-i64:64-i128:128-f80:128-n8:16:32:64-S128"
target triple = "x86_64-pc-linux-gnu"

%struct.expert_field = type { i32, i32 }

@ei_gsm_a_bssmap_extraneous_data = internal global %struct.expert_field zeroinitializer, align 4
@.str.137 = private unnamed_addr constant [1 x i8] zeroinitializer, align 1
@ei_gsm_a_bssmap_missing_mandatory_element = internal global %struct.expert_field zeroinitializer, align 4
@.str.139 = private unnamed_addr constant [71 x i8] c"Missing Mandatory element (0x%02x) %s%s, rest of dissection is suspect\00", align 1
@.str.1123 = private unnamed_addr constant [16 x i8] c"(BSS Supported)\00", align 1

; Function Attrs: null_pointer_is_valid sspstrong uwtable
define internal void @bssmap_ass_failure(ptr noundef %0, ptr noundef %1, ptr noundef %2, i32 noundef %3, i32 noundef %4) #1 {
  %6 = alloca ptr, align 8
  %7 = alloca ptr, align 8
  %8 = alloca ptr, align 8
  %9 = alloca i32, align 4
  %10 = alloca i32, align 4
  %11 = alloca i32, align 4
  %12 = alloca i32, align 4
  %13 = alloca i32, align 4
  %14 = alloca i32, align 4
  store ptr %0, ptr %6, align 8
  store ptr %1, ptr %7, align 8
  store ptr %2, ptr %8, align 8
  store i32 %3, ptr %9, align 4
  store i32 %4, ptr %10, align 4
  call void @llvm.lifetime.start.p0(i64 4, ptr %11) #5
  call void @llvm.lifetime.start.p0(i64 4, ptr %12) #5
  call void @llvm.lifetime.start.p0(i64 4, ptr %13) #5
  %15 = load i32, ptr %9, align 4
  store i32 %15, ptr %11, align 4
  %16 = load i32, ptr %10, align 4
  store i32 %16, ptr %13, align 4
  %17 = load i32, ptr %13, align 4
  %18 = icmp sgt i32 %17, 0
  br i1 %18, label %19, label %35

19:                                               ; preds = %5
  %20 = load ptr, ptr %6, align 8
  %21 = load ptr, ptr %7, align 8
  %22 = load ptr, ptr %8, align 8
  %23 = load i32, ptr %11, align 4
  %24 = load i32, ptr %13, align 4
  %25 = call zeroext i16 @elem_tlv(ptr noundef %20, ptr noundef %21, ptr noundef %22, i8 noundef zeroext 4, i32 noundef 0, i32 noundef 4, i32 noundef %23, i32 noundef %24, ptr noundef null)
  %26 = zext i16 %25 to i32
  store i32 %26, ptr %12, align 4
  %27 = icmp ugt i32 %26, 0
  br i1 %27, label %28, label %35

28:                                               ; preds = %19
  %29 = load i32, ptr %12, align 4
  %30 = load i32, ptr %11, align 4
  %31 = add i32 %30, %29
  store i32 %31, ptr %11, align 4
  %32 = load i32, ptr %12, align 4
  %33 = load i32, ptr %13, align 4
  %34 = sub i32 %33, %32
  store i32 %34, ptr %13, align 4
  br label %42

35:                                               ; preds = %19, %5
  %36 = load ptr, ptr %7, align 8
  %37 = load ptr, ptr %8, align 8
  %38 = load ptr, ptr %6, align 8
  %39 = load i32, ptr %11, align 4
  %40 = call ptr @get_gsm_a_msg_string(i32 noundef 0, i32 noundef 4)
  %41 = call ptr (ptr, ptr, ptr, ptr, i32, i32, ptr, ...) @proto_tree_add_expert_format(ptr noundef %36, ptr noundef %37, ptr noundef @ei_gsm_a_bssmap_missing_mandatory_element, ptr noundef %38, i32 noundef %39, i32 noundef 0, ptr noundef @.str.139, i32 noundef 4, ptr noundef %40, ptr noundef @.str.137)
  br label %42

42:                                               ; preds = %35, %28
  %43 = load i32, ptr %13, align 4
  %44 = icmp sle i32 %43, 0
  br i1 %44, label %45, label %46

45:                                               ; preds = %42
  store i32 1, ptr %14, align 4
  br label %155

46:                                               ; preds = %42
  %47 = load ptr, ptr %6, align 8
  %48 = load ptr, ptr %7, align 8
  %49 = load ptr, ptr %8, align 8
  %50 = load i32, ptr %11, align 4
  %51 = call zeroext i16 @elem_tv(ptr noundef %47, ptr noundef %48, ptr noundef %49, i8 noundef zeroext 21, i32 noundef 0, i32 noundef 21, i32 noundef %50, ptr noundef null)
  %52 = zext i16 %51 to i32
  store i32 %52, ptr %12, align 4
  %53 = icmp ugt i32 %52, 0
  br i1 %53, label %54, label %61

54:                                               ; preds = %46
  %55 = load i32, ptr %12, align 4
  %56 = load i32, ptr %11, align 4
  %57 = add i32 %56, %55
  store i32 %57, ptr %11, align 4
  %58 = load i32, ptr %12, align 4
  %59 = load i32, ptr %13, align 4
  %60 = sub i32 %59, %58
  store i32 %60, ptr %13, align 4
  br label %61

61:                                               ; preds = %54, %46
  %62 = load i32, ptr %13, align 4
  %63 = icmp sle i32 %62, 0
  br i1 %63, label %64, label %65

64:                                               ; preds = %61
  store i32 1, ptr %14, align 4
  br label %155

65:                                               ; preds = %61
  %66 = load ptr, ptr %6, align 8
  %67 = load ptr, ptr %7, align 8
  %68 = load ptr, ptr %8, align 8
  %69 = load i32, ptr %11, align 4
  %70 = call zeroext i16 @elem_tv(ptr noundef %66, ptr noundef %67, ptr noundef %68, i8 noundef zeroext 45, i32 noundef 0, i32 noundef 45, i32 noundef %69, ptr noundef null)
  %71 = zext i16 %70 to i32
  store i32 %71, ptr %12, align 4
  %72 = icmp ugt i32 %71, 0
  br i1 %72, label %73, label %80

73:                                               ; preds = %65
  %74 = load i32, ptr %12, align 4
  %75 = load i32, ptr %11, align 4
  %76 = add i32 %75, %74
  store i32 %76, ptr %11, align 4
  %77 = load i32, ptr %12, align 4
  %78 = load i32, ptr %13, align 4
  %79 = sub i32 %78, %77
  store i32 %79, ptr %13, align 4
  br label %80

80:                                               ; preds = %73, %65
  %81 = load i32, ptr %13, align 4
  %82 = icmp sle i32 %81, 0
  br i1 %82, label %83, label %84

83:                                               ; preds = %80
  store i32 1, ptr %14, align 4
  br label %155

84:                                               ; preds = %80
  %85 = load ptr, ptr %6, align 8
  %86 = load ptr, ptr %7, align 8
  %87 = load ptr, ptr %8, align 8
  %88 = load i32, ptr %11, align 4
  %89 = load i32, ptr %13, align 4
  %90 = call zeroext i16 @elem_tlv(ptr noundef %85, ptr noundef %86, ptr noundef %87, i8 noundef zeroext 46, i32 noundef 0, i32 noundef 46, i32 noundef %88, i32 noundef %89, ptr noundef null)
  %91 = zext i16 %90 to i32
  store i32 %91, ptr %12, align 4
  %92 = icmp ugt i32 %91, 0
  br i1 %92, label %93, label %100

93:                                               ; preds = %84
  %94 = load i32, ptr %12, align 4
  %95 = load i32, ptr %11, align 4
  %96 = add i32 %95, %94
  store i32 %96, ptr %11, align 4
  %97 = load i32, ptr %12, align 4
  %98 = load i32, ptr %13, align 4
  %99 = sub i32 %98, %97
  store i32 %99, ptr %13, align 4
  br label %100

100:                                              ; preds = %93, %84
  %101 = load i32, ptr %13, align 4
  %102 = icmp sle i32 %101, 0
  br i1 %102, label %103, label %104

103:                                              ; preds = %100
  store i32 1, ptr %14, align 4
  br label %155

104:                                              ; preds = %100
  %105 = load ptr, ptr %6, align 8
  %106 = load ptr, ptr %7, align 8
  %107 = load ptr, ptr %8, align 8
  %108 = load i32, ptr %11, align 4
  %109 = call zeroext i16 @elem_tv(ptr noundef %105, ptr noundef %106, ptr noundef %107, i8 noundef zeroext 106, i32 noundef 0, i32 noundef 106, i32 noundef %108, ptr noundef null)
  %110 = zext i16 %109 to i32
  store i32 %110, ptr %12, align 4
  %111 = icmp ugt i32 %110, 0
  br i1 %111, label %112, label %119

112:                                              ; preds = %104
  %113 = load i32, ptr %12, align 4
  %114 = load i32, ptr %11, align 4
  %115 = add i32 %114, %113
  store i32 %115, ptr %11, align 4
  %116 = load i32, ptr %12, align 4
  %117 = load i32, ptr %13, align 4
  %118 = sub i32 %117, %116
  store i32 %118, ptr %13, align 4
  br label %119

119:                                              ; preds = %112, %104
  %120 = load i32, ptr %13, align 4
  %121 = icmp sle i32 %120, 0
  br i1 %121, label %122, label %123

122:                                              ; preds = %119
  store i32 1, ptr %14, align 4
  br label %155

123:                                              ; preds = %119
  %124 = load ptr, ptr %6, align 8
  %125 = load ptr, ptr %7, align 8
  %126 = load ptr, ptr %8, align 8
  %127 = load i32, ptr %11, align 4
  %128 = load i32, ptr %13, align 4
  %129 = call zeroext i16 @elem_tlv(ptr noundef %124, ptr noundef %125, ptr noundef %126, i8 noundef zeroext 125, i32 noundef 0, i32 noundef 125, i32 noundef %127, i32 noundef %128, ptr noundef @.str.1123)
  %130 = zext i16 %129 to i32
  store i32 %130, ptr %12, align 4
  %131 = icmp ugt i32 %130, 0
  br i1 %131, label %132, label %139

132:                                              ; preds = %123
  %133 = load i32, ptr %12, align 4
  %134 = load i32, ptr %11, align 4
  %135 = add i32 %134, %133
  store i32 %135, ptr %11, align 4
  %136 = load i32, ptr %12, align 4
  %137 = load i32, ptr %13, align 4
  %138 = sub i32 %137, %136
  store i32 %138, ptr %13, align 4
  br label %139

139:                                              ; preds = %132, %123
  %140 = load i32, ptr %13, align 4
  %141 = icmp ugt i32 %140, 0
  br i1 %141, label %142, label %154

142:                                              ; preds = %139
  %143 = load ptr, ptr %7, align 8
  %144 = load ptr, ptr %8, align 8
  %145 = load ptr, ptr %6, align 8
  %146 = load i32, ptr %11, align 4
  %147 = load i32, ptr %13, align 4
  %148 = sub i32 %147, 0
  %149 = call ptr @proto_tree_add_expert(ptr noundef %143, ptr noundef %144, ptr noundef @ei_gsm_a_bssmap_extraneous_data, ptr noundef %145, i32 noundef %146, i32 noundef %148)
  %150 = load i32, ptr %13, align 4
  %151 = sub i32 %150, 0
  %152 = load i32, ptr %11, align 4
  %153 = add i32 %152, %151
  store i32 %153, ptr %11, align 4
  br label %154

154:                                              ; preds = %142, %139
  store i32 0, ptr %14, align 4
  br label %155

155:                                              ; preds = %154, %122, %103, %83, %64, %45
  call void @llvm.lifetime.end.p0(i64 4, ptr %13) #5
  call void @llvm.lifetime.end.p0(i64 4, ptr %12) #5
  call void @llvm.lifetime.end.p0(i64 4, ptr %11) #5
  %156 = load i32, ptr %14, align 4
  switch i32 %156, label %158 [
    i32 0, label %157
    i32 1, label %157
  ]

157:                                              ; preds = %155, %155
  ret void

158:                                              ; preds = %155
  unreachable
}