; Function Attrs: null_pointer_is_valid sspstrong uwtable
define internal void @bssmap_ass_failure(ptr noundef %0, ptr noundef %1, ptr noundef %2, i32 noundef %3, i32 noundef %4) #1 {
  %6 = icmp sgt i32 %4, 0
  br i1 %6, label %7, label %13

7:                                                ; preds = %5
  %8 = tail call zeroext i16 @elem_tlv(ptr noundef %0, ptr noundef %1, ptr noundef %2, i8 noundef zeroext 4, i32 noundef 0, i32 noundef 4, i32 noundef %3, i32 noundef %4, ptr noundef null)
  %.not = icmp eq i16 %8, 0
  br i1 %.not, label %13, label %9

9:                                                ; preds = %7
  %10 = zext i16 %8 to i32
  %11 = add i32 %3, %10
  %12 = sub nsw i32 %4, %10
  br label %16

13:                                               ; preds = %7, %5
  %14 = tail call ptr @get_gsm_a_msg_string(i32 noundef 0, i32 noundef 4)
  %15 = tail call ptr (ptr, ptr, ptr, ptr, i32, i32, ptr, ...) @proto_tree_add_expert_format(ptr noundef %1, ptr noundef %2, ptr noundef nonnull @ei_gsm_a_bssmap_missing_mandatory_element, ptr noundef %0, i32 noundef %3, i32 noundef 0, ptr noundef nonnull @.str.139, i32 noundef 4, ptr noundef %14, ptr noundef nonnull @.str.137)
  br label %16

16:                                               ; preds = %13, %9
  %.070 = phi i32 [ %11, %9 ], [ %3, %13 ]
  %.0 = phi i32 [ %12, %9 ], [ %4, %13 ]
  %17 = icmp slt i32 %.0, 1
  br i1 %17, label %49, label %18

18:                                               ; preds = %16
  %19 = tail call zeroext i16 @elem_tv(ptr noundef %0, ptr noundef %1, ptr noundef %2, i8 noundef zeroext 21, i32 noundef 0, i32 noundef 21, i32 noundef %.070, ptr noundef null)
  %20 = zext i16 %19 to i32
  %21 = sub nsw i32 %.0, %20
  %22 = icmp slt i32 %21, 1
  br i1 %22, label %49, label %23

23:                                               ; preds = %18
  %24 = add i32 %.070, %20
  %25 = tail call zeroext i16 @elem_tv(ptr noundef %0, ptr noundef %1, ptr noundef %2, i8 noundef zeroext 45, i32 noundef 0, i32 noundef 45, i32 noundef %24, ptr noundef null)
  %26 = zext i16 %25 to i32
  %27 = sub nsw i32 %21, %26
  %28 = icmp slt i32 %27, 1
  br i1 %28, label %49, label %29

29:                                               ; preds = %23
  %30 = add i32 %24, %26
  %31 = tail call zeroext i16 @elem_tlv(ptr noundef %0, ptr noundef %1, ptr noundef %2, i8 noundef zeroext 46, i32 noundef 0, i32 noundef 46, i32 noundef %30, i32 noundef %27, ptr noundef null)
  %32 = zext i16 %31 to i32
  %33 = sub nsw i32 %27, %32
  %34 = icmp slt i32 %33, 1
  br i1 %34, label %49, label %35

35:                                               ; preds = %29
  %36 = add i32 %30, %32
  %37 = tail call zeroext i16 @elem_tv(ptr noundef %0, ptr noundef %1, ptr noundef %2, i8 noundef zeroext 106, i32 noundef 0, i32 noundef 106, i32 noundef %36, ptr noundef null)
  %38 = zext i16 %37 to i32
  %39 = sub nsw i32 %33, %38
  %40 = icmp slt i32 %39, 1
  br i1 %40, label %49, label %41

41:                                               ; preds = %35
  %42 = add i32 %36, %38
  %43 = tail call zeroext i16 @elem_tlv(ptr noundef %0, ptr noundef %1, ptr noundef %2, i8 noundef zeroext 125, i32 noundef 0, i32 noundef 125, i32 noundef %42, i32 noundef %39, ptr noundef nonnull @.str.1123)
  %44 = zext i16 %43 to i32
  %.not88 = icmp eq i32 %39, %44
  br i1 %.not88, label %49, label %45

45:                                               ; preds = %41
  %46 = sub nsw i32 %39, %44
  %47 = add i32 %42, %44
  %48 = tail call ptr @proto_tree_add_expert(ptr noundef %1, ptr noundef %2, ptr noundef nonnull @ei_gsm_a_bssmap_extraneous_data, ptr noundef %0, i32 noundef %47, i32 noundef %46)
  br label %49

49:                                               ; preds = %41, %45, %35, %29, %23, %18, %16
  ret void
}